target datalayout = "e-m:e-p270:32:32-p271:32:32-p272:64:64-i64:64-i128:128-f80:128-n8:16:32:64-S128"
target triple = "x86_64-pc-linux-gnu"

@.str.9 = private unnamed_addr constant [2 x i8] c"w\00", align 1
@.str.10 = private unnamed_addr constant [11 x i8] c".model %s\0A\00", align 1
@.str.11 = private unnamed_addr constant [8 x i8] c".inputs\00", align 1
@.str.12 = private unnamed_addr constant [4 x i8] c" %s\00", align 1
@.str.13 = private unnamed_addr constant [2 x i8] c"\0A\00", align 1
@.str.14 = private unnamed_addr constant [11 x i8] c".outputs F\00", align 1
@.str.15 = private unnamed_addr constant [2 x i8] c"F\00", align 1
@.str.16 = private unnamed_addr constant [1 x i8] zeroinitializer, align 1
@.str.17 = private unnamed_addr constant [6 x i8] c".end\0A\00", align 1

; Function Attrs: nounwind uwtable
define void @WriteSingleOutputFunctionBlif(ptr noundef %0, ptr noundef %1, ptr noundef %2, i32 noundef %3, ptr noundef %4) #0 {
  %6 = alloca ptr, align 8
  %7 = alloca ptr, align 8
  %8 = alloca ptr, align 8
  %9 = alloca i32, align 4
  %10 = alloca ptr, align 8
  %11 = alloca i32, align 4
  %12 = alloca ptr, align 8
  store ptr %0, ptr %6, align 8, !tbaa !8
  store ptr %1, ptr %7, align 8, !tbaa !14
  store ptr %2, ptr %8, align 8, !tbaa !39
  store i32 %3, ptr %9, align 4, !tbaa !12
  store ptr %4, ptr %10, align 8, !tbaa !3
  call void @llvm.lifetime.start.p0(i64 4, ptr %11) #5
  call void @llvm.lifetime.start.p0(i64 8, ptr %12) #5
  %13 = load ptr, ptr %10, align 8, !tbaa !3
  %14 = call noalias ptr @fopen(ptr noundef %13, ptr noundef @.str.9)
  store ptr %14, ptr %12, align 8, !tbaa !41
  %15 = load ptr, ptr %12, align 8, !tbaa !41
  %16 = load ptr, ptr %10, align 8, !tbaa !3
  %17 = call i32 (ptr, ptr, ...) @fprintf(ptr noundef %15, ptr noundef @.str.10, ptr noundef %16) #5
  %18 = load ptr, ptr %12, align 8, !tbaa !41
  %19 = call i32 (ptr, ptr, ...) @fprintf(ptr noundef %18, ptr noundef @.str.11) #5
  store i32 0, ptr %11, align 4, !tbaa !12
  br label %20

20:                                               ; preds = %32, %5
  %21 = load i32, ptr %11, align 4, !tbaa !12
  %22 = load i32, ptr %9, align 4, !tbaa !12
  %23 = icmp slt i32 %21, %22
  br i1 %23, label %24, label %35

24:                                               ; preds = %20
  %25 = load ptr, ptr %12, align 8, !tbaa !41
  %26 = load ptr, ptr %8, align 8, !tbaa !39
  %27 = load i32, ptr %11, align 4, !tbaa !12
  %28 = sext i32 %27 to i64
  %29 = getelementptr inbounds ptr, ptr %26, i64 %28
  %30 = load ptr, ptr %29, align 8, !tbaa !3
  %31 = call i32 (ptr, ptr, ...) @fprintf(ptr noundef %25, ptr noundef @.str.12, ptr noundef %30) #5
  br label %32

32:                                               ; preds = %24
  %33 = load i32, ptr %11, align 4, !tbaa !12
  %34 = add nsw i32 %33, 1
  store i32 %34, ptr %11, align 4, !tbaa !12
  br label %20, !llvm.loop !42

35:                                               ; preds = %20
  %36 = load ptr, ptr %12, align 8, !tbaa !41
  %37 = call i32 (ptr, ptr, ...) @fprintf(ptr noundef %36, ptr noundef @.str.13) #5
  %38 = load ptr, ptr %12, align 8, !tbaa !41
  %39 = call i32 (ptr, ptr, ...) @fprintf(ptr noundef %38, ptr noundef @.str.14) #5
  %40 = load ptr, ptr %12, align 8, !tbaa !41
  %41 = call i32 (ptr, ptr, ...) @fprintf(ptr noundef %40, ptr noundef @.str.13) #5
  %42 = load ptr, ptr %12, align 8, !tbaa !41
  %43 = load ptr, ptr %7, align 8, !tbaa !14
  %44 = load ptr, ptr %8, align 8, !tbaa !39
  call void @WriteDDintoBLIFfile(ptr noundef %42, ptr noundef %43, ptr noundef @.str.15, ptr noundef @.str.16, ptr noundef %44)
  %45 = load ptr, ptr %12, align 8, !tbaa !41
  %46 = call i32 (ptr, ptr, ...) @fprintf(ptr noundef %45, ptr noundef @.str.17) #5
  %47 = load ptr, ptr %12, align 8, !tbaa !41
  %48 = call i32 @fclose(ptr noundef %47)
  call void @llvm.lifetime.end.p0(i64 8, ptr %12) #5
  call void @llvm.lifetime.end.p0(i64 4, ptr %11) #5
  ret void
}