; Function Attrs: nounwind uwtable
define void @WriteSingleOutputFunctionBlif(ptr readnone captures(none) %0, ptr noundef %1, ptr noundef readonly captures(none) %2, i32 noundef %3, ptr noundef %4) local_unnamed_addr #0 {
  %6 = tail call noalias ptr @fopen(ptr noundef %4, ptr noundef nonnull @.str.9)
  %7 = tail call i32 (ptr, ptr, ...) @fprintf(ptr noundef %6, ptr noundef nonnull @.str.10, ptr noundef %4) #14
  %8 = tail call i64 @fwrite(ptr nonnull @.str.11, i64 7, i64 1, ptr %6)
  %9 = icmp sgt i32 %3, 0
  br i1 %9, label %.lr.ph.preheader, label %._crit_edge

.lr.ph.preheader:                                 ; preds = %5
  %wide.trip.count = zext nneg i32 %3 to i64
  br label %.lr.ph

.lr.ph:                                           ; preds = %.lr.ph.preheader, %.lr.ph
  %indvars.iv = phi i64 [ 0, %.lr.ph.preheader ], [ %indvars.iv.next, %.lr.ph ]
  %10 = getelementptr inbounds nuw ptr, ptr %2, i64 %indvars.iv
  %11 = load ptr, ptr %10, align 8, !tbaa !10
  %12 = tail call i32 (ptr, ptr, ...) @fprintf(ptr noundef %6, ptr noundef nonnull @.str.12, ptr noundef %11) #14
  %indvars.iv.next = add nuw nsw i64 %indvars.iv, 1
  %exitcond.not = icmp eq i64 %indvars.iv.next, %wide.trip.count
  br i1 %exitcond.not, label %._crit_edge, label %.lr.ph, !llvm.loop !37

._crit_edge:                                      ; preds = %.lr.ph, %5
  %fputc = tail call i32 @fputc(i32 10, ptr %6)
  %13 = tail call i64 @fwrite(ptr nonnull @.str.14, i64 10, i64 1, ptr %6)
  %fputc17 = tail call i32 @fputc(i32 10, ptr %6)
  tail call void @WriteDDintoBLIFfile(ptr noundef %6, ptr noundef %1, ptr noundef nonnull @.str.15, ptr noundef nonnull @.str.16, ptr noundef %2)
  %14 = tail call i64 @fwrite(ptr nonnull @.str.17, i64 5, i64 1, ptr %6)
  %15 = tail call i32 @fclose(ptr noundef %6)
  ret void
}